
kernel.elf:     file format elf32-i386


Disassembly of section .first_text:

00100000 <entry>:
  100000:	e8 11 00 00 00       	call   100016 <main>
  100005:	c3                   	ret

00100006 <putc>:
  100006:	8b 4c 24 08          	mov    0x8(%esp),%ecx
  10000a:	bf 00 80 0b 00       	mov    $0xb8000,%edi
  10000f:	01 cf                	add    %ecx,%edi
  100011:	88 07                	mov    %al,(%edi)
  100013:	31 c0                	xor    %eax,%eax
  100015:	c3                   	ret

Disassembly of section .second_text:

00100016 <main>:
  100016:	55                   	push   %ebp
  100017:	89 e5                	mov    %esp,%ebp
  100019:	83 e4 f0             	and    $0xfffffff0,%esp
  10001c:	e8 07 00 00 00       	call   100028 <refresh_print>
  100021:	e8 57 00 00 00       	call   10007d <relocate_gdt>
  100026:	eb fe                	jmp    100026 <main+0x10>

00100028 <refresh_print>:
  100028:	55                   	push   %ebp
  100029:	89 e5                	mov    %esp,%ebp
  10002b:	83 ec 18             	sub    $0x18,%esp
  10002e:	c6 45 f7 20          	movb   $0x20,-0x9(%ebp)
  100032:	c7 05 20 01 10 00 00 	movl   $0x0,0x100120
  100039:	00 00 00 
  10003c:	eb 26                	jmp    100064 <refresh_print+0x3c>
  10003e:	a1 20 01 10 00       	mov    0x100120,%eax
  100043:	8d 14 00             	lea    (%eax,%eax,1),%edx
  100046:	0f be 45 f7          	movsbl -0x9(%ebp),%eax
  10004a:	83 ec 08             	sub    $0x8,%esp
  10004d:	52                   	push   %edx
  10004e:	50                   	push   %eax
  10004f:	e8 b2 ff ff ff       	call   100006 <putc>
  100054:	83 c4 10             	add    $0x10,%esp
  100057:	a1 20 01 10 00       	mov    0x100120,%eax
  10005c:	83 c0 01             	add    $0x1,%eax
  10005f:	a3 20 01 10 00       	mov    %eax,0x100120
  100064:	a1 20 01 10 00       	mov    0x100120,%eax
  100069:	3d cf 07 00 00       	cmp    $0x7cf,%eax
  10006e:	76 ce                	jbe    10003e <refresh_print+0x16>
  100070:	c7 05 20 01 10 00 00 	movl   $0x0,0x100120
  100077:	00 00 00 
  10007a:	90                   	nop
  10007b:	c9                   	leave
  10007c:	c3                   	ret

0010007d <relocate_gdt>:
  10007d:	55                   	push   %ebp
  10007e:	89 e5                	mov    %esp,%ebp
  100080:	90                   	nop
  100081:	5d                   	pop    %ebp
  100082:	c3                   	ret

00100083 <printk>:
  100083:	55                   	push   %ebp
  100084:	89 e5                	mov    %esp,%ebp
  100086:	90                   	nop
  100087:	5d                   	pop    %ebp
  100088:	c3                   	ret
