
kernel.elf:     file format elf32-i386


Disassembly of section .text:

00100000 <entry>:
  100000:	55                   	push   %ebp
  100001:	89 e5                	mov    %esp,%ebp
  100003:	83 ec 08             	sub    $0x8,%esp
  100006:	e8 62 02 00 00       	call   10026d <vga_refresh>
  10000b:	83 ec 0c             	sub    $0xc,%esp
  10000e:	68 54 09 10 00       	push   $0x100954
  100013:	e8 f5 01 00 00       	call   10020d <puts>
  100018:	83 c4 10             	add    $0x10,%esp
  10001b:	e8 44 04 00 00       	call   100464 <init_gdt>
  100020:	83 ec 0c             	sub    $0xc,%esp
  100023:	68 78 09 10 00       	push   $0x100978
  100028:	e8 e0 01 00 00       	call   10020d <puts>
  10002d:	83 c4 10             	add    $0x10,%esp
  100030:	e8 8b 05 00 00       	call   1005c0 <init_int>
  100035:	83 ec 0c             	sub    $0xc,%esp
  100038:	68 a8 09 10 00       	push   $0x1009a8
  10003d:	e8 cb 01 00 00       	call   10020d <puts>
  100042:	83 c4 10             	add    $0x10,%esp
  100045:	e8 5f 08 00 00       	call   1008a9 <init_timer>
  10004a:	83 ec 0c             	sub    $0xc,%esp
  10004d:	68 db 09 10 00       	push   $0x1009db
  100052:	e8 b6 01 00 00       	call   10020d <puts>
  100057:	83 c4 10             	add    $0x10,%esp
  10005a:	e8 03 00 00 00       	call   100062 <main>
  10005f:	90                   	nop
  100060:	c9                   	leave
  100061:	c3                   	ret

00100062 <main>:
  100062:	55                   	push   %ebp
  100063:	89 e5                	mov    %esp,%ebp
  100065:	83 e4 f0             	and    $0xfffffff0,%esp
  100068:	e8 be 08 00 00       	call   10092b <schedule>
  10006d:	eb fe                	jmp    10006d <main+0xb>

0010006f <putc>:
  10006f:	55                   	push   %ebp
  100070:	89 e5                	mov    %esp,%ebp
  100072:	53                   	push   %ebx
  100073:	83 ec 24             	sub    $0x24,%esp
  100076:	8b 45 08             	mov    0x8(%ebp),%eax
  100079:	88 45 e4             	mov    %al,-0x1c(%ebp)
  10007c:	c7 45 f4 20 0a 10 00 	movl   $0x100a20,-0xc(%ebp)
  100083:	80 7d e4 00          	cmpb   $0x0,-0x1c(%ebp)
  100087:	0f 84 77 01 00 00    	je     100204 <putc+0x195>
  10008d:	80 7d e4 09          	cmpb   $0x9,-0x1c(%ebp)
  100091:	75 39                	jne    1000cc <putc+0x5d>
  100093:	83 ec 0c             	sub    $0xc,%esp
  100096:	6a 20                	push   $0x20
  100098:	e8 d2 ff ff ff       	call   10006f <putc>
  10009d:	83 c4 10             	add    $0x10,%esp
  1000a0:	83 ec 0c             	sub    $0xc,%esp
  1000a3:	6a 20                	push   $0x20
  1000a5:	e8 c5 ff ff ff       	call   10006f <putc>
  1000aa:	83 c4 10             	add    $0x10,%esp
  1000ad:	83 ec 0c             	sub    $0xc,%esp
  1000b0:	6a 20                	push   $0x20
  1000b2:	e8 b8 ff ff ff       	call   10006f <putc>
  1000b7:	83 c4 10             	add    $0x10,%esp
  1000ba:	83 ec 0c             	sub    $0xc,%esp
  1000bd:	6a 20                	push   $0x20
  1000bf:	e8 ab ff ff ff       	call   10006f <putc>
  1000c4:	83 c4 10             	add    $0x10,%esp
  1000c7:	e9 3c 01 00 00       	jmp    100208 <putc+0x199>
  1000cc:	80 7d e4 0a          	cmpb   $0xa,-0x1c(%ebp)
  1000d0:	0f 85 81 00 00 00    	jne    100157 <putc+0xe8>
  1000d6:	a1 00 16 10 00       	mov    0x101600,%eax
  1000db:	83 c0 50             	add    $0x50,%eax
  1000de:	a3 00 16 10 00       	mov    %eax,0x101600
  1000e3:	8b 1d 00 16 10 00    	mov    0x101600,%ebx
  1000e9:	8b 0d 00 16 10 00    	mov    0x101600,%ecx
  1000ef:	ba 67 66 66 66       	mov    $0x66666667,%edx
  1000f4:	89 c8                	mov    %ecx,%eax
  1000f6:	f7 ea                	imul   %edx
  1000f8:	c1 fa 05             	sar    $0x5,%edx
  1000fb:	89 c8                	mov    %ecx,%eax
  1000fd:	c1 f8 1f             	sar    $0x1f,%eax
  100100:	29 c2                	sub    %eax,%edx
  100102:	89 d0                	mov    %edx,%eax
  100104:	c1 e0 02             	shl    $0x2,%eax
  100107:	01 d0                	add    %edx,%eax
  100109:	c1 e0 04             	shl    $0x4,%eax
  10010c:	29 c1                	sub    %eax,%ecx
  10010e:	89 ca                	mov    %ecx,%edx
  100110:	89 d8                	mov    %ebx,%eax
  100112:	29 d0                	sub    %edx,%eax
  100114:	a3 00 16 10 00       	mov    %eax,0x101600
  100119:	a1 00 16 10 00       	mov    0x101600,%eax
  10011e:	3d cf 07 00 00       	cmp    $0x7cf,%eax
  100123:	7e 14                	jle    100139 <putc+0xca>
  100125:	c7 05 00 16 10 00 80 	movl   $0x780,0x101600
  10012c:	07 00 00 
  10012f:	e8 7b 01 00 00       	call   1002af <vga_rollup>
  100134:	e9 cf 00 00 00       	jmp    100208 <putc+0x199>
  100139:	a1 00 16 10 00       	mov    0x101600,%eax
  10013e:	0f b7 c0             	movzwl %ax,%eax
  100141:	83 ec 0c             	sub    $0xc,%esp
  100144:	50                   	push   %eax
  100145:	e8 3d 02 00 00       	call   100387 <set_cursor>
  10014a:	83 c4 10             	add    $0x10,%esp
  10014d:	e8 1b 01 00 00       	call   10026d <vga_refresh>
  100152:	e9 b1 00 00 00       	jmp    100208 <putc+0x199>
  100157:	80 7d e4 08          	cmpb   $0x8,-0x1c(%ebp)
  10015b:	75 50                	jne    1001ad <putc+0x13e>
  10015d:	8b 15 00 16 10 00    	mov    0x101600,%edx
  100163:	a1 04 16 10 00       	mov    0x101604,%eax
  100168:	39 c2                	cmp    %eax,%edx
  10016a:	0f 8e 97 00 00 00    	jle    100207 <putc+0x198>
  100170:	a1 00 16 10 00       	mov    0x101600,%eax
  100175:	83 e8 01             	sub    $0x1,%eax
  100178:	a3 00 16 10 00       	mov    %eax,0x101600
  10017d:	83 ec 0c             	sub    $0xc,%esp
  100180:	6a 20                	push   $0x20
  100182:	e8 e8 fe ff ff       	call   10006f <putc>
  100187:	83 c4 10             	add    $0x10,%esp
  10018a:	a1 00 16 10 00       	mov    0x101600,%eax
  10018f:	83 e8 01             	sub    $0x1,%eax
  100192:	a3 00 16 10 00       	mov    %eax,0x101600
  100197:	a1 00 16 10 00       	mov    0x101600,%eax
  10019c:	0f b7 c0             	movzwl %ax,%eax
  10019f:	83 ec 0c             	sub    $0xc,%esp
  1001a2:	50                   	push   %eax
  1001a3:	e8 df 01 00 00       	call   100387 <set_cursor>
  1001a8:	83 c4 10             	add    $0x10,%esp
  1001ab:	eb 5b                	jmp    100208 <putc+0x199>
  1001ad:	a1 00 16 10 00       	mov    0x101600,%eax
  1001b2:	89 c2                	mov    %eax,%edx
  1001b4:	8b 45 f4             	mov    -0xc(%ebp),%eax
  1001b7:	01 c2                	add    %eax,%edx
  1001b9:	0f b6 45 e4          	movzbl -0x1c(%ebp),%eax
  1001bd:	88 02                	mov    %al,(%edx)
  1001bf:	a1 00 16 10 00       	mov    0x101600,%eax
  1001c4:	83 c0 01             	add    $0x1,%eax
  1001c7:	a3 00 16 10 00       	mov    %eax,0x101600
  1001cc:	a1 00 16 10 00       	mov    0x101600,%eax
  1001d1:	3d cf 07 00 00       	cmp    $0x7cf,%eax
  1001d6:	7e 11                	jle    1001e9 <putc+0x17a>
  1001d8:	c7 05 00 16 10 00 80 	movl   $0x780,0x101600
  1001df:	07 00 00 
  1001e2:	e8 c8 00 00 00       	call   1002af <vga_rollup>
  1001e7:	eb 1f                	jmp    100208 <putc+0x199>
  1001e9:	a1 00 16 10 00       	mov    0x101600,%eax
  1001ee:	0f b7 c0             	movzwl %ax,%eax
  1001f1:	83 ec 0c             	sub    $0xc,%esp
  1001f4:	50                   	push   %eax
  1001f5:	e8 8d 01 00 00       	call   100387 <set_cursor>
  1001fa:	83 c4 10             	add    $0x10,%esp
  1001fd:	e8 6b 00 00 00       	call   10026d <vga_refresh>
  100202:	eb 04                	jmp    100208 <putc+0x199>
  100204:	90                   	nop
  100205:	eb 01                	jmp    100208 <putc+0x199>
  100207:	90                   	nop
  100208:	8b 5d fc             	mov    -0x4(%ebp),%ebx
  10020b:	c9                   	leave
  10020c:	c3                   	ret

0010020d <puts>:
  10020d:	55                   	push   %ebp
  10020e:	89 e5                	mov    %esp,%ebp
  100210:	83 ec 18             	sub    $0x18,%esp
  100213:	c7 45 f0 00 00 00 00 	movl   $0x0,-0x10(%ebp)
  10021a:	eb 04                	jmp    100220 <puts+0x13>
  10021c:	83 45 f0 01          	addl   $0x1,-0x10(%ebp)
  100220:	8b 55 f0             	mov    -0x10(%ebp),%edx
  100223:	8b 45 08             	mov    0x8(%ebp),%eax
  100226:	01 d0                	add    %edx,%eax
  100228:	0f b6 00             	movzbl (%eax),%eax
  10022b:	84 c0                	test   %al,%al
  10022d:	75 ed                	jne    10021c <puts+0xf>
  10022f:	c7 45 f4 00 00 00 00 	movl   $0x0,-0xc(%ebp)
  100236:	eb 1e                	jmp    100256 <puts+0x49>
  100238:	8b 55 f4             	mov    -0xc(%ebp),%edx
  10023b:	8b 45 08             	mov    0x8(%ebp),%eax
  10023e:	01 d0                	add    %edx,%eax
  100240:	0f b6 00             	movzbl (%eax),%eax
  100243:	0f be c0             	movsbl %al,%eax
  100246:	83 ec 0c             	sub    $0xc,%esp
  100249:	50                   	push   %eax
  10024a:	e8 20 fe ff ff       	call   10006f <putc>
  10024f:	83 c4 10             	add    $0x10,%esp
  100252:	83 45 f4 01          	addl   $0x1,-0xc(%ebp)
  100256:	8b 45 f4             	mov    -0xc(%ebp),%eax
  100259:	3b 45 f0             	cmp    -0x10(%ebp),%eax
  10025c:	7c da                	jl     100238 <puts+0x2b>
  10025e:	a1 00 16 10 00       	mov    0x101600,%eax
  100263:	a3 04 16 10 00       	mov    %eax,0x101604
  100268:	8b 45 f0             	mov    -0x10(%ebp),%eax
  10026b:	c9                   	leave
  10026c:	c3                   	ret

0010026d <vga_refresh>:
  10026d:	55                   	push   %ebp
  10026e:	89 e5                	mov    %esp,%ebp
  100270:	83 ec 10             	sub    $0x10,%esp
  100273:	c7 45 f8 20 0a 10 00 	movl   $0x100a20,-0x8(%ebp)
  10027a:	c7 45 fc 00 00 00 00 	movl   $0x0,-0x4(%ebp)
  100281:	eb 1f                	jmp    1002a2 <vga_refresh+0x35>
  100283:	8b 45 f8             	mov    -0x8(%ebp),%eax
  100286:	8d 50 01             	lea    0x1(%eax),%edx
  100289:	89 55 f8             	mov    %edx,-0x8(%ebp)
  10028c:	8b 15 00 0a 10 00    	mov    0x100a00,%edx
  100292:	8b 4d fc             	mov    -0x4(%ebp),%ecx
  100295:	01 c9                	add    %ecx,%ecx
  100297:	01 ca                	add    %ecx,%edx
  100299:	0f b6 00             	movzbl (%eax),%eax
  10029c:	88 02                	mov    %al,(%edx)
  10029e:	83 45 fc 01          	addl   $0x1,-0x4(%ebp)
  1002a2:	81 7d fc cf 07 00 00 	cmpl   $0x7cf,-0x4(%ebp)
  1002a9:	7e d8                	jle    100283 <vga_refresh+0x16>
  1002ab:	90                   	nop
  1002ac:	90                   	nop
  1002ad:	c9                   	leave
  1002ae:	c3                   	ret

001002af <vga_rollup>:
  1002af:	55                   	push   %ebp
  1002b0:	89 e5                	mov    %esp,%ebp
  1002b2:	83 ec 18             	sub    $0x18,%esp
  1002b5:	c7 45 f4 00 00 00 00 	movl   $0x0,-0xc(%ebp)
  1002bc:	eb 4d                	jmp    10030b <vga_rollup+0x5c>
  1002be:	c7 45 f0 00 00 00 00 	movl   $0x0,-0x10(%ebp)
  1002c5:	eb 3a                	jmp    100301 <vga_rollup+0x52>
  1002c7:	8b 45 f4             	mov    -0xc(%ebp),%eax
  1002ca:	8d 50 01             	lea    0x1(%eax),%edx
  1002cd:	89 d0                	mov    %edx,%eax
  1002cf:	c1 e0 02             	shl    $0x2,%eax
  1002d2:	01 d0                	add    %edx,%eax
  1002d4:	c1 e0 04             	shl    $0x4,%eax
  1002d7:	8b 55 f0             	mov    -0x10(%ebp),%edx
  1002da:	01 d0                	add    %edx,%eax
  1002dc:	05 20 0a 10 00       	add    $0x100a20,%eax
  1002e1:	0f b6 08             	movzbl (%eax),%ecx
  1002e4:	8b 55 f4             	mov    -0xc(%ebp),%edx
  1002e7:	89 d0                	mov    %edx,%eax
  1002e9:	c1 e0 02             	shl    $0x2,%eax
  1002ec:	01 d0                	add    %edx,%eax
  1002ee:	c1 e0 04             	shl    $0x4,%eax
  1002f1:	8b 55 f0             	mov    -0x10(%ebp),%edx
  1002f4:	01 d0                	add    %edx,%eax
  1002f6:	05 20 0a 10 00       	add    $0x100a20,%eax
  1002fb:	88 08                	mov    %cl,(%eax)
  1002fd:	83 45 f0 01          	addl   $0x1,-0x10(%ebp)
  100301:	83 7d f0 4f          	cmpl   $0x4f,-0x10(%ebp)
  100305:	7e c0                	jle    1002c7 <vga_rollup+0x18>
  100307:	83 45 f4 01          	addl   $0x1,-0xc(%ebp)
  10030b:	83 7d f4 17          	cmpl   $0x17,-0xc(%ebp)
  10030f:	7e ad                	jle    1002be <vga_rollup+0xf>
  100311:	c7 45 f4 00 00 00 00 	movl   $0x0,-0xc(%ebp)
  100318:	eb 0f                	jmp    100329 <vga_rollup+0x7a>
  10031a:	8b 45 f4             	mov    -0xc(%ebp),%eax
  10031d:	05 a0 11 10 00       	add    $0x1011a0,%eax
  100322:	c6 00 20             	movb   $0x20,(%eax)
  100325:	83 45 f4 01          	addl   $0x1,-0xc(%ebp)
  100329:	83 7d f4 4f          	cmpl   $0x4f,-0xc(%ebp)
  10032d:	7e eb                	jle    10031a <vga_rollup+0x6b>
  10032f:	e8 39 ff ff ff       	call   10026d <vga_refresh>
  100334:	a1 00 16 10 00       	mov    0x101600,%eax
  100339:	0f b7 c0             	movzwl %ax,%eax
  10033c:	83 ec 0c             	sub    $0xc,%esp
  10033f:	50                   	push   %eax
  100340:	e8 42 00 00 00       	call   100387 <set_cursor>
  100345:	83 c4 10             	add    $0x10,%esp
  100348:	90                   	nop
  100349:	c9                   	leave
  10034a:	c3                   	ret

0010034b <inb>:
  10034b:	55                   	push   %ebp
  10034c:	89 e5                	mov    %esp,%ebp
  10034e:	83 ec 14             	sub    $0x14,%esp
  100351:	8b 45 08             	mov    0x8(%ebp),%eax
  100354:	66 89 45 ec          	mov    %ax,-0x14(%ebp)
  100358:	0f b7 45 ec          	movzwl -0x14(%ebp),%eax
  10035c:	89 c2                	mov    %eax,%edx
  10035e:	ec                   	in     (%dx),%al
  10035f:	88 45 ff             	mov    %al,-0x1(%ebp)
  100362:	0f b6 45 ff          	movzbl -0x1(%ebp),%eax
  100366:	c9                   	leave
  100367:	c3                   	ret

00100368 <outb>:
  100368:	55                   	push   %ebp
  100369:	89 e5                	mov    %esp,%ebp
  10036b:	83 ec 08             	sub    $0x8,%esp
  10036e:	8b 55 08             	mov    0x8(%ebp),%edx
  100371:	8b 45 0c             	mov    0xc(%ebp),%eax
  100374:	66 89 55 fc          	mov    %dx,-0x4(%ebp)
  100378:	88 45 f8             	mov    %al,-0x8(%ebp)
  10037b:	0f b6 45 f8          	movzbl -0x8(%ebp),%eax
  10037f:	0f b7 55 fc          	movzwl -0x4(%ebp),%edx
  100383:	ee                   	out    %al,(%dx)
  100384:	90                   	nop
  100385:	c9                   	leave
  100386:	c3                   	ret

00100387 <set_cursor>:
  100387:	55                   	push   %ebp
  100388:	89 e5                	mov    %esp,%ebp
  10038a:	83 ec 04             	sub    $0x4,%esp
  10038d:	8b 45 08             	mov    0x8(%ebp),%eax
  100390:	66 89 45 fc          	mov    %ax,-0x4(%ebp)
  100394:	6a 0e                	push   $0xe
  100396:	68 d4 03 00 00       	push   $0x3d4
  10039b:	e8 c8 ff ff ff       	call   100368 <outb>
  1003a0:	83 c4 08             	add    $0x8,%esp
  1003a3:	0f b7 45 fc          	movzwl -0x4(%ebp),%eax
  1003a7:	66 c1 e8 08          	shr    $0x8,%ax
  1003ab:	0f b6 c0             	movzbl %al,%eax
  1003ae:	50                   	push   %eax
  1003af:	68 d5 03 00 00       	push   $0x3d5
  1003b4:	e8 af ff ff ff       	call   100368 <outb>
  1003b9:	83 c4 08             	add    $0x8,%esp
  1003bc:	6a 0f                	push   $0xf
  1003be:	68 d4 03 00 00       	push   $0x3d4
  1003c3:	e8 a0 ff ff ff       	call   100368 <outb>
  1003c8:	83 c4 08             	add    $0x8,%esp
  1003cb:	0f b7 45 fc          	movzwl -0x4(%ebp),%eax
  1003cf:	0f b6 c0             	movzbl %al,%eax
  1003d2:	50                   	push   %eax
  1003d3:	68 d5 03 00 00       	push   $0x3d5
  1003d8:	e8 8b ff ff ff       	call   100368 <outb>
  1003dd:	83 c4 08             	add    $0x8,%esp
  1003e0:	90                   	nop
  1003e1:	c9                   	leave
  1003e2:	c3                   	ret

001003e3 <get_cursor>:
  1003e3:	55                   	push   %ebp
  1003e4:	89 e5                	mov    %esp,%ebp
  1003e6:	83 ec 10             	sub    $0x10,%esp
  1003e9:	6a 0e                	push   $0xe
  1003eb:	68 d4 03 00 00       	push   $0x3d4
  1003f0:	e8 73 ff ff ff       	call   100368 <outb>
  1003f5:	83 c4 08             	add    $0x8,%esp
  1003f8:	68 d5 03 00 00       	push   $0x3d5
  1003fd:	e8 49 ff ff ff       	call   10034b <inb>
  100402:	83 c4 04             	add    $0x4,%esp
  100405:	0f b6 c0             	movzbl %al,%eax
  100408:	66 89 45 fe          	mov    %ax,-0x2(%ebp)
  10040c:	66 c1 65 fe 08       	shlw   $0x8,-0x2(%ebp)
  100411:	6a 0f                	push   $0xf
  100413:	68 d4 03 00 00       	push   $0x3d4
  100418:	e8 4b ff ff ff       	call   100368 <outb>
  10041d:	83 c4 08             	add    $0x8,%esp
  100420:	68 d5 03 00 00       	push   $0x3d5
  100425:	e8 21 ff ff ff       	call   10034b <inb>
  10042a:	83 c4 04             	add    $0x4,%esp
  10042d:	0f b6 c0             	movzbl %al,%eax
  100430:	66 89 45 fe          	mov    %ax,-0x2(%ebp)
  100434:	0f b7 45 fe          	movzwl -0x2(%ebp),%eax
  100438:	c9                   	leave
  100439:	c3                   	ret

0010043a <lgdt>:
  10043a:	55                   	push   %ebp
  10043b:	89 e5                	mov    %esp,%ebp
  10043d:	83 ec 10             	sub    $0x10,%esp
  100440:	8b 45 0c             	mov    0xc(%ebp),%eax
  100443:	83 e8 01             	sub    $0x1,%eax
  100446:	66 89 45 fa          	mov    %ax,-0x6(%ebp)
  10044a:	8b 45 08             	mov    0x8(%ebp),%eax
  10044d:	66 89 45 fc          	mov    %ax,-0x4(%ebp)
  100451:	8b 45 08             	mov    0x8(%ebp),%eax
  100454:	c1 e8 10             	shr    $0x10,%eax
  100457:	66 89 45 fe          	mov    %ax,-0x2(%ebp)
  10045b:	8d 45 fa             	lea    -0x6(%ebp),%eax
  10045e:	0f 01 10             	lgdtl  (%eax)
  100461:	90                   	nop
  100462:	c9                   	leave
  100463:	c3                   	ret

00100464 <init_gdt>:
  100464:	55                   	push   %ebp
  100465:	89 e5                	mov    %esp,%ebp
  100467:	83 ec 10             	sub    $0x10,%esp
  10046a:	c7 45 fc 00 00 01 00 	movl   $0x10000,-0x4(%ebp)
  100471:	8b 45 fc             	mov    -0x4(%ebp),%eax
  100474:	83 c0 08             	add    $0x8,%eax
  100477:	66 c7 00 ff ff       	movw   $0xffff,(%eax)
  10047c:	66 c7 40 02 00 00    	movw   $0x0,0x2(%eax)
  100482:	c6 40 04 00          	movb   $0x0,0x4(%eax)
  100486:	0f b6 50 05          	movzbl 0x5(%eax),%edx
  10048a:	83 e2 f0             	and    $0xfffffff0,%edx
  10048d:	83 ca 0a             	or     $0xa,%edx
  100490:	88 50 05             	mov    %dl,0x5(%eax)
  100493:	0f b6 50 05          	movzbl 0x5(%eax),%edx
  100497:	83 ca 10             	or     $0x10,%edx
  10049a:	88 50 05             	mov    %dl,0x5(%eax)
  10049d:	0f b6 50 05          	movzbl 0x5(%eax),%edx
  1004a1:	83 e2 9f             	and    $0xffffff9f,%edx
  1004a4:	88 50 05             	mov    %dl,0x5(%eax)
  1004a7:	0f b6 50 05          	movzbl 0x5(%eax),%edx
  1004ab:	83 ca 80             	or     $0xffffff80,%edx
  1004ae:	88 50 05             	mov    %dl,0x5(%eax)
  1004b1:	0f b6 50 06          	movzbl 0x6(%eax),%edx
  1004b5:	83 ca 0f             	or     $0xf,%edx
  1004b8:	88 50 06             	mov    %dl,0x6(%eax)
  1004bb:	0f b6 50 06          	movzbl 0x6(%eax),%edx
  1004bf:	83 e2 ef             	and    $0xffffffef,%edx
  1004c2:	88 50 06             	mov    %dl,0x6(%eax)
  1004c5:	0f b6 50 06          	movzbl 0x6(%eax),%edx
  1004c9:	83 e2 df             	and    $0xffffffdf,%edx
  1004cc:	88 50 06             	mov    %dl,0x6(%eax)
  1004cf:	0f b6 50 06          	movzbl 0x6(%eax),%edx
  1004d3:	83 ca 40             	or     $0x40,%edx
  1004d6:	88 50 06             	mov    %dl,0x6(%eax)
  1004d9:	0f b6 50 06          	movzbl 0x6(%eax),%edx
  1004dd:	83 ca 80             	or     $0xffffff80,%edx
  1004e0:	88 50 06             	mov    %dl,0x6(%eax)
  1004e3:	c6 40 07 00          	movb   $0x0,0x7(%eax)
  1004e7:	8b 45 fc             	mov    -0x4(%ebp),%eax
  1004ea:	83 c0 10             	add    $0x10,%eax
  1004ed:	66 c7 00 ff ff       	movw   $0xffff,(%eax)
  1004f2:	66 c7 40 02 00 00    	movw   $0x0,0x2(%eax)
  1004f8:	c6 40 04 00          	movb   $0x0,0x4(%eax)
  1004fc:	0f b6 50 05          	movzbl 0x5(%eax),%edx
  100500:	83 e2 f0             	and    $0xfffffff0,%edx
  100503:	83 ca 02             	or     $0x2,%edx
  100506:	88 50 05             	mov    %dl,0x5(%eax)
  100509:	0f b6 50 05          	movzbl 0x5(%eax),%edx
  10050d:	83 ca 10             	or     $0x10,%edx
  100510:	88 50 05             	mov    %dl,0x5(%eax)
  100513:	0f b6 50 05          	movzbl 0x5(%eax),%edx
  100517:	83 e2 9f             	and    $0xffffff9f,%edx
  10051a:	88 50 05             	mov    %dl,0x5(%eax)
  10051d:	0f b6 50 05          	movzbl 0x5(%eax),%edx
  100521:	83 ca 80             	or     $0xffffff80,%edx
  100524:	88 50 05             	mov    %dl,0x5(%eax)
  100527:	0f b6 50 06          	movzbl 0x6(%eax),%edx
  10052b:	83 ca 0f             	or     $0xf,%edx
  10052e:	88 50 06             	mov    %dl,0x6(%eax)
  100531:	0f b6 50 06          	movzbl 0x6(%eax),%edx
  100535:	83 e2 ef             	and    $0xffffffef,%edx
  100538:	88 50 06             	mov    %dl,0x6(%eax)
  10053b:	0f b6 50 06          	movzbl 0x6(%eax),%edx
  10053f:	83 e2 df             	and    $0xffffffdf,%edx
  100542:	88 50 06             	mov    %dl,0x6(%eax)
  100545:	0f b6 50 06          	movzbl 0x6(%eax),%edx
  100549:	83 ca 40             	or     $0x40,%edx
  10054c:	88 50 06             	mov    %dl,0x6(%eax)
  10054f:	0f b6 50 06          	movzbl 0x6(%eax),%edx
  100553:	83 ca 80             	or     $0xffffff80,%edx
  100556:	88 50 06             	mov    %dl,0x6(%eax)
  100559:	c6 40 07 00          	movb   $0x0,0x7(%eax)
  10055d:	68 00 00 01 00       	push   $0x10000
  100562:	ff 75 fc             	push   -0x4(%ebp)
  100565:	e8 d0 fe ff ff       	call   10043a <lgdt>
  10056a:	83 c4 08             	add    $0x8,%esp
  10056d:	90                   	nop
  10056e:	c9                   	leave
  10056f:	c3                   	ret

00100570 <outb>:
  100570:	55                   	push   %ebp
  100571:	89 e5                	mov    %esp,%ebp
  100573:	83 ec 08             	sub    $0x8,%esp
  100576:	8b 55 08             	mov    0x8(%ebp),%edx
  100579:	8b 45 0c             	mov    0xc(%ebp),%eax
  10057c:	66 89 55 fc          	mov    %dx,-0x4(%ebp)
  100580:	88 45 f8             	mov    %al,-0x8(%ebp)
  100583:	0f b6 45 f8          	movzbl -0x8(%ebp),%eax
  100587:	0f b7 55 fc          	movzwl -0x4(%ebp),%edx
  10058b:	ee                   	out    %al,(%dx)
  10058c:	90                   	nop
  10058d:	c9                   	leave
  10058e:	c3                   	ret

0010058f <lidt>:
  10058f:	55                   	push   %ebp
  100590:	89 e5                	mov    %esp,%ebp
  100592:	83 ec 10             	sub    $0x10,%esp
  100595:	8b 45 0c             	mov    0xc(%ebp),%eax
  100598:	83 e8 01             	sub    $0x1,%eax
  10059b:	66 89 45 fa          	mov    %ax,-0x6(%ebp)
  10059f:	8b 45 08             	mov    0x8(%ebp),%eax
  1005a2:	66 89 45 fc          	mov    %ax,-0x4(%ebp)
  1005a6:	8b 45 08             	mov    0x8(%ebp),%eax
  1005a9:	c1 e8 10             	shr    $0x10,%eax
  1005ac:	66 89 45 fe          	mov    %ax,-0x2(%ebp)
  1005b0:	8d 45 fa             	lea    -0x6(%ebp),%eax
  1005b3:	0f 01 18             	lidtl  (%eax)
  1005b6:	90                   	nop
  1005b7:	c9                   	leave
  1005b8:	c3                   	ret

001005b9 <sti>:
  1005b9:	55                   	push   %ebp
  1005ba:	89 e5                	mov    %esp,%ebp
  1005bc:	fb                   	sti
  1005bd:	90                   	nop
  1005be:	5d                   	pop    %ebp
  1005bf:	c3                   	ret

001005c0 <init_int>:
  1005c0:	55                   	push   %ebp
  1005c1:	89 e5                	mov    %esp,%ebp
  1005c3:	83 ec 08             	sub    $0x8,%esp
  1005c6:	e8 f9 00 00 00       	call   1006c4 <set_idt>
  1005cb:	e8 7c 00 00 00       	call   10064c <init_8259a>
  1005d0:	83 ec 08             	sub    $0x8,%esp
  1005d3:	68 00 08 00 00       	push   $0x800
  1005d8:	68 00 00 02 00       	push   $0x20000
  1005dd:	e8 ad ff ff ff       	call   10058f <lidt>
  1005e2:	83 c4 10             	add    $0x10,%esp
  1005e5:	e8 9c 01 00 00       	call   100786 <init_keyboard>
  1005ea:	e8 ca ff ff ff       	call   1005b9 <sti>
  1005ef:	90                   	nop
  1005f0:	c9                   	leave
  1005f1:	c3                   	ret

001005f2 <set_8259a_irq_mask>:
  1005f2:	55                   	push   %ebp
  1005f3:	89 e5                	mov    %esp,%ebp
  1005f5:	83 ec 04             	sub    $0x4,%esp
  1005f8:	8b 45 08             	mov    0x8(%ebp),%eax
  1005fb:	66 89 45 fc          	mov    %ax,-0x4(%ebp)
  1005ff:	0f b7 45 fc          	movzwl -0x4(%ebp),%eax
  100603:	0f b6 c0             	movzbl %al,%eax
  100606:	50                   	push   %eax
  100607:	6a 21                	push   $0x21
  100609:	e8 62 ff ff ff       	call   100570 <outb>
  10060e:	83 c4 08             	add    $0x8,%esp
  100611:	0f b7 45 fc          	movzwl -0x4(%ebp),%eax
  100615:	66 c1 e8 08          	shr    $0x8,%ax
  100619:	0f b6 c0             	movzbl %al,%eax
  10061c:	50                   	push   %eax
  10061d:	68 a1 00 00 00       	push   $0xa1
  100622:	e8 49 ff ff ff       	call   100570 <outb>
  100627:	83 c4 08             	add    $0x8,%esp
  10062a:	90                   	nop
  10062b:	c9                   	leave
  10062c:	c3                   	ret

0010062d <outb>:
  10062d:	55                   	push   %ebp
  10062e:	89 e5                	mov    %esp,%ebp
  100630:	83 ec 08             	sub    $0x8,%esp
  100633:	8b 55 08             	mov    0x8(%ebp),%edx
  100636:	8b 45 0c             	mov    0xc(%ebp),%eax
  100639:	66 89 55 fc          	mov    %dx,-0x4(%ebp)
  10063d:	88 45 f8             	mov    %al,-0x8(%ebp)
  100640:	0f b6 45 f8          	movzbl -0x8(%ebp),%eax
  100644:	0f b7 55 fc          	movzwl -0x4(%ebp),%edx
  100648:	ee                   	out    %al,(%dx)
  100649:	90                   	nop
  10064a:	c9                   	leave
  10064b:	c3                   	ret

0010064c <init_8259a>:
  10064c:	55                   	push   %ebp
  10064d:	89 e5                	mov    %esp,%ebp
  10064f:	6a 11                	push   $0x11
  100651:	6a 20                	push   $0x20
  100653:	e8 d5 ff ff ff       	call   10062d <outb>
  100658:	83 c4 08             	add    $0x8,%esp
  10065b:	6a 11                	push   $0x11
  10065d:	68 a0 00 00 00       	push   $0xa0
  100662:	e8 c6 ff ff ff       	call   10062d <outb>
  100667:	83 c4 08             	add    $0x8,%esp
  10066a:	6a 20                	push   $0x20
  10066c:	6a 21                	push   $0x21
  10066e:	e8 ba ff ff ff       	call   10062d <outb>
  100673:	83 c4 08             	add    $0x8,%esp
  100676:	6a 28                	push   $0x28
  100678:	68 a1 00 00 00       	push   $0xa1
  10067d:	e8 ab ff ff ff       	call   10062d <outb>
  100682:	83 c4 08             	add    $0x8,%esp
  100685:	6a 04                	push   $0x4
  100687:	6a 21                	push   $0x21
  100689:	e8 9f ff ff ff       	call   10062d <outb>
  10068e:	83 c4 08             	add    $0x8,%esp
  100691:	6a 02                	push   $0x2
  100693:	68 a1 00 00 00       	push   $0xa1
  100698:	e8 90 ff ff ff       	call   10062d <outb>
  10069d:	83 c4 08             	add    $0x8,%esp
  1006a0:	68 ff 00 00 00       	push   $0xff
  1006a5:	6a 21                	push   $0x21
  1006a7:	e8 81 ff ff ff       	call   10062d <outb>
  1006ac:	83 c4 08             	add    $0x8,%esp
  1006af:	68 ff 00 00 00       	push   $0xff
  1006b4:	68 a1 00 00 00       	push   $0xa1
  1006b9:	e8 6f ff ff ff       	call   10062d <outb>
  1006be:	83 c4 08             	add    $0x8,%esp
  1006c1:	90                   	nop
  1006c2:	c9                   	leave
  1006c3:	c3                   	ret

001006c4 <set_idt>:
  1006c4:	55                   	push   %ebp
  1006c5:	89 e5                	mov    %esp,%ebp
  1006c7:	b9 00 01 00 00       	mov    $0x100,%ecx
  1006cc:	bf 00 00 02 00       	mov    $0x20000,%edi

001006d1 <idt>:
  1006d1:	b8 3a 07 10 00       	mov    $0x10073a,%eax
  1006d6:	66 89 07             	mov    %ax,(%edi)
  1006d9:	66 c7 47 02 08 00    	movw   $0x8,0x2(%edi)
  1006df:	66 c7 47 04 00 8e    	movw   $0x8e00,0x4(%edi)
  1006e5:	c1 e8 10             	shr    $0x10,%eax
  1006e8:	66 89 47 06          	mov    %ax,0x6(%edi)
  1006ec:	83 c7 08             	add    $0x8,%edi
  1006ef:	e2 e0                	loop   1006d1 <idt>
  1006f1:	0f 01 1d f0 11 10 00 	lidtl  0x1011f0
  1006f8:	bf 08 01 02 00       	mov    $0x20108,%edi
  1006fd:	b8 3c 07 10 00       	mov    $0x10073c,%eax
  100702:	66 89 07             	mov    %ax,(%edi)
  100705:	66 c7 47 02 08 00    	movw   $0x8,0x2(%edi)
  10070b:	66 c7 47 04 00 8e    	movw   $0x8e00,0x4(%edi)
  100711:	c1 e8 10             	shr    $0x10,%eax
  100714:	66 89 47 06          	mov    %ax,0x6(%edi)
  100718:	bf 00 01 02 00       	mov    $0x20100,%edi
  10071d:	b8 43 07 10 00       	mov    $0x100743,%eax
  100722:	66 89 07             	mov    %ax,(%edi)
  100725:	66 c7 47 02 08 00    	movw   $0x8,0x2(%edi)
  10072b:	66 c7 47 04 00 8e    	movw   $0x8e00,0x4(%edi)
  100731:	c1 e8 10             	shr    $0x10,%eax
  100734:	66 89 47 06          	mov    %ax,0x6(%edi)
  100738:	c9                   	leave
  100739:	c3                   	ret

0010073a <def_intservice>:
  10073a:	fa                   	cli
  10073b:	cf                   	iret

0010073c <keyboard_intservice>:
  10073c:	fa                   	cli
  10073d:	e8 5d 00 00 00       	call   10079f <keyboard>
  100742:	cf                   	iret

00100743 <timer_intservice>:
  100743:	fa                   	cli
  100744:	e8 fc 00 00 00       	call   100845 <timer_handle>
  100749:	cf                   	iret

0010074a <inb>:
  10074a:	55                   	push   %ebp
  10074b:	89 e5                	mov    %esp,%ebp
  10074d:	83 ec 14             	sub    $0x14,%esp
  100750:	8b 45 08             	mov    0x8(%ebp),%eax
  100753:	66 89 45 ec          	mov    %ax,-0x14(%ebp)
  100757:	0f b7 45 ec          	movzwl -0x14(%ebp),%eax
  10075b:	89 c2                	mov    %eax,%edx
  10075d:	ec                   	in     (%dx),%al
  10075e:	88 45 ff             	mov    %al,-0x1(%ebp)
  100761:	0f b6 45 ff          	movzbl -0x1(%ebp),%eax
  100765:	c9                   	leave
  100766:	c3                   	ret

00100767 <outb>:
  100767:	55                   	push   %ebp
  100768:	89 e5                	mov    %esp,%ebp
  10076a:	83 ec 08             	sub    $0x8,%esp
  10076d:	8b 55 08             	mov    0x8(%ebp),%edx
  100770:	8b 45 0c             	mov    0xc(%ebp),%eax
  100773:	66 89 55 fc          	mov    %dx,-0x4(%ebp)
  100777:	88 45 f8             	mov    %al,-0x8(%ebp)
  10077a:	0f b6 45 f8          	movzbl -0x8(%ebp),%eax
  10077e:	0f b7 55 fc          	movzwl -0x4(%ebp),%edx
  100782:	ee                   	out    %al,(%dx)
  100783:	90                   	nop
  100784:	c9                   	leave
  100785:	c3                   	ret

00100786 <init_keyboard>:
  100786:	55                   	push   %ebp
  100787:	89 e5                	mov    %esp,%ebp
  100789:	83 ec 08             	sub    $0x8,%esp
  10078c:	83 ec 0c             	sub    $0xc,%esp
  10078f:	68 fd ff 00 00       	push   $0xfffd
  100794:	e8 59 fe ff ff       	call   1005f2 <set_8259a_irq_mask>
  100799:	83 c4 10             	add    $0x10,%esp
  10079c:	90                   	nop
  10079d:	c9                   	leave
  10079e:	c3                   	ret

0010079f <keyboard>:
  10079f:	55                   	push   %ebp
  1007a0:	89 e5                	mov    %esp,%ebp
  1007a2:	83 ec 18             	sub    $0x18,%esp
  1007a5:	6a 20                	push   $0x20
  1007a7:	6a 20                	push   $0x20
  1007a9:	e8 b9 ff ff ff       	call   100767 <outb>
  1007ae:	83 c4 08             	add    $0x8,%esp
  1007b1:	6a 60                	push   $0x60
  1007b3:	e8 92 ff ff ff       	call   10074a <inb>
  1007b8:	83 c4 04             	add    $0x4,%esp
  1007bb:	88 45 f7             	mov    %al,-0x9(%ebp)
  1007be:	80 7d f7 2a          	cmpb   $0x2a,-0x9(%ebp)
  1007c2:	74 06                	je     1007ca <keyboard+0x2b>
  1007c4:	80 7d f7 36          	cmpb   $0x36,-0x9(%ebp)
  1007c8:	75 0c                	jne    1007d6 <keyboard+0x37>
  1007ca:	c7 05 08 16 10 00 01 	movl   $0x1,0x101608
  1007d1:	00 00 00 
  1007d4:	eb 38                	jmp    10080e <keyboard+0x6f>
  1007d6:	80 7d f7 aa          	cmpb   $0xaa,-0x9(%ebp)
  1007da:	74 06                	je     1007e2 <keyboard+0x43>
  1007dc:	80 7d f7 b6          	cmpb   $0xb6,-0x9(%ebp)
  1007e0:	75 0c                	jne    1007ee <keyboard+0x4f>
  1007e2:	c7 05 08 16 10 00 00 	movl   $0x0,0x101608
  1007e9:	00 00 00 
  1007ec:	eb 20                	jmp    10080e <keyboard+0x6f>
  1007ee:	0f b6 55 f7          	movzbl -0x9(%ebp),%edx
  1007f2:	a1 08 16 10 00       	mov    0x101608,%eax
  1007f7:	0f b6 84 50 00 12 10 	movzbl 0x101200(%eax,%edx,2),%eax
  1007fe:	00 
  1007ff:	0f b6 c0             	movzbl %al,%eax
  100802:	83 ec 0c             	sub    $0xc,%esp
  100805:	50                   	push   %eax
  100806:	e8 64 f8 ff ff       	call   10006f <putc>
  10080b:	83 c4 10             	add    $0x10,%esp
  10080e:	0f b6 45 f7          	movzbl -0x9(%ebp),%eax
  100812:	83 e0 7f             	and    $0x7f,%eax
  100815:	83 ec 08             	sub    $0x8,%esp
  100818:	50                   	push   %eax
  100819:	6a 61                	push   $0x61
  10081b:	e8 47 ff ff ff       	call   100767 <outb>
  100820:	83 c4 10             	add    $0x10,%esp
  100823:	90                   	nop
  100824:	c9                   	leave
  100825:	c3                   	ret

00100826 <outb>:
  100826:	55                   	push   %ebp
  100827:	89 e5                	mov    %esp,%ebp
  100829:	83 ec 08             	sub    $0x8,%esp
  10082c:	8b 55 08             	mov    0x8(%ebp),%edx
  10082f:	8b 45 0c             	mov    0xc(%ebp),%eax
  100832:	66 89 55 fc          	mov    %dx,-0x4(%ebp)
  100836:	88 45 f8             	mov    %al,-0x8(%ebp)
  100839:	0f b6 45 f8          	movzbl -0x8(%ebp),%eax
  10083d:	0f b7 55 fc          	movzwl -0x4(%ebp),%edx
  100841:	ee                   	out    %al,(%dx)
  100842:	90                   	nop
  100843:	c9                   	leave
  100844:	c3                   	ret

00100845 <timer_handle>:
  100845:	55                   	push   %ebp
  100846:	89 e5                	mov    %esp,%ebp
  100848:	83 ec 08             	sub    $0x8,%esp
  10084b:	6a 20                	push   $0x20
  10084d:	6a 20                	push   $0x20
  10084f:	e8 d2 ff ff ff       	call   100826 <outb>
  100854:	83 c4 08             	add    $0x8,%esp
  100857:	eb 3a                	jmp    100893 <timer_handle+0x4e>
  100859:	a1 14 16 10 00       	mov    0x101614,%eax
  10085e:	3d 7f 96 98 00       	cmp    $0x98967f,%eax
  100863:	75 2e                	jne    100893 <timer_handle+0x4e>
  100865:	a1 10 16 10 00       	mov    0x101610,%eax
  10086a:	83 c0 01             	add    $0x1,%eax
  10086d:	a3 10 16 10 00       	mov    %eax,0x101610
  100872:	c7 05 14 16 10 00 00 	movl   $0x0,0x101614
  100879:	00 00 00 
  10087c:	a1 0c 16 10 00       	mov    0x10160c,%eax
  100881:	85 c0                	test   %eax,%eax
  100883:	0f 94 c0             	sete   %al
  100886:	0f b6 c0             	movzbl %al,%eax
  100889:	a3 0c 16 10 00       	mov    %eax,0x10160c
  10088e:	e8 cf f7 ff ff       	call   100062 <main>
  100893:	a1 14 16 10 00       	mov    0x101614,%eax
  100898:	8d 50 01             	lea    0x1(%eax),%edx
  10089b:	89 15 14 16 10 00    	mov    %edx,0x101614
  1008a1:	85 c0                	test   %eax,%eax
  1008a3:	75 b4                	jne    100859 <timer_handle+0x14>
  1008a5:	90                   	nop
  1008a6:	90                   	nop
  1008a7:	c9                   	leave
  1008a8:	c3                   	ret

001008a9 <init_timer>:
  1008a9:	55                   	push   %ebp
  1008aa:	89 e5                	mov    %esp,%ebp
  1008ac:	83 ec 18             	sub    $0x18,%esp
  1008af:	c7 45 f4 a9 04 00 00 	movl   $0x4a9,-0xc(%ebp)
  1008b6:	6a 36                	push   $0x36
  1008b8:	6a 43                	push   $0x43
  1008ba:	e8 67 ff ff ff       	call   100826 <outb>
  1008bf:	83 c4 08             	add    $0x8,%esp
  1008c2:	8b 45 f4             	mov    -0xc(%ebp),%eax
  1008c5:	0f b6 c0             	movzbl %al,%eax
  1008c8:	50                   	push   %eax
  1008c9:	6a 40                	push   $0x40
  1008cb:	e8 56 ff ff ff       	call   100826 <outb>
  1008d0:	83 c4 08             	add    $0x8,%esp
  1008d3:	8b 45 f4             	mov    -0xc(%ebp),%eax
  1008d6:	c1 e8 08             	shr    $0x8,%eax
  1008d9:	0f b6 c0             	movzbl %al,%eax
  1008dc:	50                   	push   %eax
  1008dd:	6a 40                	push   $0x40
  1008df:	e8 42 ff ff ff       	call   100826 <outb>
  1008e4:	83 c4 08             	add    $0x8,%esp
  1008e7:	83 ec 0c             	sub    $0xc,%esp
  1008ea:	68 fc ff 00 00       	push   $0xfffc
  1008ef:	e8 fe fc ff ff       	call   1005f2 <set_8259a_irq_mask>
  1008f4:	83 c4 10             	add    $0x10,%esp
  1008f7:	90                   	nop
  1008f8:	c9                   	leave
  1008f9:	c3                   	ret

001008fa <task0>:
  1008fa:	55                   	push   %ebp
  1008fb:	89 e5                	mov    %esp,%ebp
  1008fd:	83 ec 08             	sub    $0x8,%esp
  100900:	83 ec 0c             	sub    $0xc,%esp
  100903:	6a 30                	push   $0x30
  100905:	e8 65 f7 ff ff       	call   10006f <putc>
  10090a:	83 c4 10             	add    $0x10,%esp
  10090d:	eb fe                	jmp    10090d <task0+0x13>

0010090f <task1>:
  10090f:	55                   	push   %ebp
  100910:	89 e5                	mov    %esp,%ebp
  100912:	83 ec 08             	sub    $0x8,%esp
  100915:	83 ec 0c             	sub    $0xc,%esp
  100918:	6a 31                	push   $0x31
  10091a:	e8 50 f7 ff ff       	call   10006f <putc>
  10091f:	83 c4 10             	add    $0x10,%esp
  100922:	eb fe                	jmp    100922 <task1+0x13>

00100924 <sti>:
  100924:	55                   	push   %ebp
  100925:	89 e5                	mov    %esp,%ebp
  100927:	fb                   	sti
  100928:	90                   	nop
  100929:	5d                   	pop    %ebp
  10092a:	c3                   	ret

0010092b <schedule>:
  10092b:	55                   	push   %ebp
  10092c:	89 e5                	mov    %esp,%ebp
  10092e:	83 ec 08             	sub    $0x8,%esp
  100931:	a1 0c 16 10 00       	mov    0x10160c,%eax
  100936:	85 c0                	test   %eax,%eax
  100938:	75 0c                	jne    100946 <schedule+0x1b>
  10093a:	e8 e5 ff ff ff       	call   100924 <sti>
  10093f:	e8 b6 ff ff ff       	call   1008fa <task0>
  100944:	eb 0a                	jmp    100950 <schedule+0x25>
  100946:	e8 d9 ff ff ff       	call   100924 <sti>
  10094b:	e8 bf ff ff ff       	call   10090f <task1>
  100950:	90                   	nop
  100951:	c9                   	leave
  100952:	c3                   	ret
